target datalayout = "e-m:e-p270:32:32-p271:32:32-p272:64:64-i64:64-i128:128-f80:128-n8:16:32:64-S128"
target triple = "x86_64-pc-linux-gnu"

%"class.llvm::gi::PredicateMatcher" = type <{ ptr, i32, i32, i32, [4 x i8] }>
%"class.llvm::gi::OperandPredicateMatcher.base" = type { %"class.llvm::gi::PredicateMatcher.base" }
%"class.llvm::gi::PredicateMatcher.base" = type <{ ptr, i32, i32, i32 }>
%"class.std::unique_ptr.155" = type { %"struct.std::__uniq_ptr_data.156" }
%"struct.std::__uniq_ptr_data.156" = type { %"class.std::__uniq_ptr_impl.157" }
%"class.std::__uniq_ptr_impl.157" = type { %"class.std::tuple.158" }
%"class.std::tuple.158" = type { %"struct.std::_Tuple_impl.159" }
%"struct.std::_Tuple_impl.159" = type { %"struct.std::_Head_base.162" }
%"struct.std::_Head_base.162" = type { ptr }
%"class.llvm::gi::InstructionOperandMatcher" = type <{ %"class.llvm::gi::OperandPredicateMatcher.base", [4 x i8], %"class.std::unique_ptr.155", i16, [6 x i8] }>

; Function Attrs: mustprogress nounwind uwtable
define linkonce_odr hidden noundef i32 @_ZNK4llvm2gi16PredicateMatcher7getKindEv(ptr noundef nonnull align 8 dereferenceable(20) %0) #1 comdat align 2 {
  %2 = alloca ptr, align 8
  store ptr %0, ptr %2, align 8
  %3 = load ptr, ptr %2, align 8
  %4 = getelementptr inbounds nuw %"class.llvm::gi::PredicateMatcher", ptr %3, i32 0, i32 1
  %5 = load i32, ptr %4, align 8
  ret i32 %5
}

; Function Attrs: mustprogress nounwind uwtable
define linkonce_odr hidden noundef zeroext i1 @_ZN4llvm2gi25InstructionOperandMatcher7classofEPKNS0_16PredicateMatcherE(ptr noundef %0) #1 comdat align 2 {
  %2 = alloca ptr, align 8
  store ptr %0, ptr %2, align 8
  %3 = load ptr, ptr %2, align 8
  %4 = call noundef i32 @_ZNK4llvm2gi16PredicateMatcher7getKindEv(ptr noundef nonnull align 8 dereferenceable(20) %3)
  %5 = icmp eq i32 %4, 18
  ret i1 %5
}

; Function Attrs: mustprogress nounwind uwtable
define linkonce_odr hidden noundef nonnull align 8 dereferenceable(8) ptr @_ZNSt10_Head_baseILm0EPN4llvm2gi18InstructionMatcherELb0EE7_M_headERKS4_(ptr noundef nonnull align 8 dereferenceable(8) %0) #1 comdat align 2 {
  %2 = alloca ptr, align 8
  store ptr %0, ptr %2, align 8
  %3 = load ptr, ptr %2, align 8
  %4 = getelementptr inbounds nuw %"struct.std::_Head_base.162", ptr %3, i32 0, i32 0
  ret ptr %4
}

; Function Attrs: mustprogress nounwind uwtable
define linkonce_odr hidden noundef zeroext i1 @_ZN4llvm8isa_implINS_2gi25InstructionOperandMatcherENS1_23OperandPredicateMatcherEvE4doitERKS3_(ptr noundef nonnull align 8 dereferenceable(20) %0) #1 comdat align 2 {
  %2 = alloca ptr, align 8
  store ptr %0, ptr %2, align 8
  %3 = load ptr, ptr %2, align 8
  %4 = call noundef zeroext i1 @_ZN4llvm2gi25InstructionOperandMatcher7classofEPKNS0_16PredicateMatcherE(ptr noundef %3)
  ret i1 %4
}

; Function Attrs: mustprogress nounwind uwtable
define linkonce_odr hidden noundef nonnull align 8 dereferenceable(8) ptr @_ZNSt11_Tuple_implILm0EJPN4llvm2gi18InstructionMatcherESt14default_deleteIS2_EEE7_M_headERKS6_(ptr noundef nonnull align 8 dereferenceable(8) %0) #1 comdat align 2 {
  %2 = alloca ptr, align 8
  store ptr %0, ptr %2, align 8
  %3 = load ptr, ptr %2, align 8
  %4 = call noundef nonnull align 8 dereferenceable(8) ptr @_ZNSt10_Head_baseILm0EPN4llvm2gi18InstructionMatcherELb0EE7_M_headERKS4_(ptr noundef nonnull align 8 dereferenceable(8) %3) #5
  ret ptr %4
}

; Function Attrs: mustprogress nounwind uwtable
define linkonce_odr hidden noundef zeroext i1 @_ZN4llvm11isa_impl_clINS_2gi25InstructionOperandMatcherEPKNS1_23OperandPredicateMatcherEE4doitES5_(ptr noundef %0) #1 comdat align 2 {
  %2 = alloca ptr, align 8
  store ptr %0, ptr %2, align 8
  %3 = load ptr, ptr %2, align 8
  %4 = call noundef zeroext i1 @_ZN4llvm8isa_implINS_2gi25InstructionOperandMatcherENS1_23OperandPredicateMatcherEvE4doitERKS3_(ptr noundef nonnull align 8 dereferenceable(20) %3)
  ret i1 %4
}

; Function Attrs: mustprogress nounwind uwtable
define linkonce_odr hidden noundef nonnull align 8 dereferenceable(8) ptr @_ZN4llvm13simplify_typeIPKNS_2gi23OperandPredicateMatcherEE18getSimplifiedValueERS4_(ptr noundef nonnull align 8 dereferenceable(8) %0) #1 comdat align 2 {
  %2 = alloca ptr, align 8
  store ptr %0, ptr %2, align 8
  %3 = load ptr, ptr %2, align 8
  ret ptr %3
}

; Function Attrs: mustprogress nounwind uwtable
define linkonce_odr noundef nonnull align 8 dereferenceable(8) ptr @_ZSt12__get_helperILm0EPN4llvm2gi18InstructionMatcherEJSt14default_deleteIS2_EEERKT0_RKSt11_Tuple_implIXT_EJS6_DpT1_EE(ptr noundef nonnull align 8 dereferenceable(8) %0) #1 comdat {
  %2 = alloca ptr, align 8
  store ptr %0, ptr %2, align 8
  %3 = load ptr, ptr %2, align 8
  %4 = call noundef nonnull align 8 dereferenceable(8) ptr @_ZNSt11_Tuple_implILm0EJPN4llvm2gi18InstructionMatcherESt14default_deleteIS2_EEE7_M_headERKS6_(ptr noundef nonnull align 8 dereferenceable(8) %3) #5
  ret ptr %4
}

; Function Attrs: mustprogress nounwind uwtable
define linkonce_odr hidden noundef zeroext i1 @_ZN4llvm13isa_impl_wrapINS_2gi25InstructionOperandMatcherEPKNS1_23OperandPredicateMatcherES5_E4doitERKS5_(ptr noundef nonnull align 8 dereferenceable(8) %0) #1 comdat align 2 {
  %2 = alloca ptr, align 8
  store ptr %0, ptr %2, align 8
  %3 = load ptr, ptr %2, align 8
  %4 = load ptr, ptr %3, align 8
  %5 = call noundef zeroext i1 @_ZN4llvm11isa_impl_clINS_2gi25InstructionOperandMatcherEPKNS1_23OperandPredicateMatcherEE4doitES5_(ptr noundef %4)
  ret i1 %5
}

; Function Attrs: mustprogress nounwind uwtable
define linkonce_odr hidden noundef ptr @_ZN4llvm13simplify_typeIKPKNS_2gi23OperandPredicateMatcherEE18getSimplifiedValueERS5_(ptr noundef nonnull align 8 dereferenceable(8) %0) #1 comdat align 2 {
  %2 = alloca ptr, align 8
  store ptr %0, ptr %2, align 8
  %3 = load ptr, ptr %2, align 8
  %4 = call noundef nonnull align 8 dereferenceable(8) ptr @_ZN4llvm13simplify_typeIPKNS_2gi23OperandPredicateMatcherEE18getSimplifiedValueERS4_(ptr noundef nonnull align 8 dereferenceable(8) %3)
  %5 = load ptr, ptr %4, align 8
  ret ptr %5
}

; Function Attrs: mustprogress nounwind uwtable
define linkonce_odr noundef nonnull align 8 dereferenceable(8) ptr @_ZSt3getILm0EJPN4llvm2gi18InstructionMatcherESt14default_deleteIS2_EEERKNSt13tuple_elementIXT_ESt5tupleIJDpT0_EEE4typeERKSA_(ptr noundef nonnull align 8 dereferenceable(8) %0) #1 comdat {
  %2 = alloca ptr, align 8
  store ptr %0, ptr %2, align 8
  %3 = load ptr, ptr %2, align 8
  %4 = call noundef nonnull align 8 dereferenceable(8) ptr @_ZSt12__get_helperILm0EPN4llvm2gi18InstructionMatcherEJSt14default_deleteIS2_EEERKT0_RKSt11_Tuple_implIXT_EJS6_DpT1_EE(ptr noundef nonnull align 8 dereferenceable(8) %3) #5
  ret ptr %4
}

; Function Attrs: mustprogress nounwind uwtable
define linkonce_odr hidden noundef ptr @_ZN4llvm16cast_convert_valINS_2gi25InstructionOperandMatcherEPKNS1_23OperandPredicateMatcherES5_E4doitES5_(ptr noundef %0) #1 comdat align 2 {
  %2 = alloca ptr, align 8
  store ptr %0, ptr %2, align 8
  %3 = load ptr, ptr %2, align 8
  ret ptr %3
}

; Function Attrs: mustprogress nounwind uwtable
define linkonce_odr hidden noundef zeroext i1 @_ZN4llvm13isa_impl_wrapINS_2gi25InstructionOperandMatcherEKPKNS1_23OperandPredicateMatcherES5_E4doitERS6_(ptr noundef nonnull align 8 dereferenceable(8) %0) #1 comdat align 2 {
  %2 = alloca ptr, align 8
  %3 = alloca ptr, align 8
  store ptr %0, ptr %2, align 8
  %4 = load ptr, ptr %2, align 8
  %5 = call noundef ptr @_ZN4llvm13simplify_typeIKPKNS_2gi23OperandPredicateMatcherEE18getSimplifiedValueERS5_(ptr noundef nonnull align 8 dereferenceable(8) %4)
  store ptr %5, ptr %3, align 8
  %6 = call noundef zeroext i1 @_ZN4llvm13isa_impl_wrapINS_2gi25InstructionOperandMatcherEPKNS1_23OperandPredicateMatcherES5_E4doitERKS5_(ptr noundef nonnull align 8 dereferenceable(8) %3)
  ret i1 %6
}

; Function Attrs: mustprogress nounwind uwtable
define linkonce_odr hidden noundef ptr @_ZNKSt15__uniq_ptr_implIN4llvm2gi18InstructionMatcherESt14default_deleteIS2_EE6_M_ptrEv(ptr noundef nonnull align 8 dereferenceable(8) %0) #1 comdat align 2 {
  %2 = alloca ptr, align 8
  store ptr %0, ptr %2, align 8
  %3 = load ptr, ptr %2, align 8
  %4 = getelementptr inbounds nuw %"class.std::__uniq_ptr_impl.157", ptr %3, i32 0, i32 0
  %5 = call noundef nonnull align 8 dereferenceable(8) ptr @_ZSt3getILm0EJPN4llvm2gi18InstructionMatcherESt14default_deleteIS2_EEERKNSt13tuple_elementIXT_ESt5tupleIJDpT0_EEE4typeERKSA_(ptr noundef nonnull align 8 dereferenceable(8) %4) #5
  %6 = load ptr, ptr %5, align 8
  ret ptr %6
}

; Function Attrs: mustprogress nounwind uwtable
define linkonce_odr hidden noundef ptr @_ZN4llvm8CastInfoINS_2gi25InstructionOperandMatcherEPKNS1_23OperandPredicateMatcherEvE6doCastERKS5_(ptr noundef nonnull align 8 dereferenceable(8) %0) #1 comdat align 2 {
  %2 = alloca ptr, align 8
  store ptr %0, ptr %2, align 8
  %3 = load ptr, ptr %2, align 8
  %4 = load ptr, ptr %3, align 8
  %5 = call noundef ptr @_ZN4llvm16cast_convert_valINS_2gi25InstructionOperandMatcherEPKNS1_23OperandPredicateMatcherES5_E4doitES5_(ptr noundef %4)
  ret ptr %5
}

; Function Attrs: mustprogress nounwind uwtable
define linkonce_odr hidden noundef ptr @_ZN4llvm8CastInfoINS_2gi25InstructionOperandMatcherEPKNS1_23OperandPredicateMatcherEvE10castFailedEv() #1 comdat align 2 {
  ret ptr null
}

; Function Attrs: mustprogress nounwind uwtable
define linkonce_odr hidden noundef zeroext i1 @_ZN4llvm14CastIsPossibleINS_2gi25InstructionOperandMatcherEPKNS1_23OperandPredicateMatcherEvE10isPossibleERKS5_(ptr noundef nonnull align 8 dereferenceable(8) %0) #1 comdat align 2 {
  %2 = alloca ptr, align 8
  store ptr %0, ptr %2, align 8
  %3 = load ptr, ptr %2, align 8
  %4 = call noundef zeroext i1 @_ZN4llvm13isa_impl_wrapINS_2gi25InstructionOperandMatcherEKPKNS1_23OperandPredicateMatcherES5_E4doitERS6_(ptr noundef nonnull align 8 dereferenceable(8) %3)
  ret i1 %4
}

; Function Attrs: mustprogress nounwind uwtable
define linkonce_odr hidden noundef ptr @_ZNKSt10unique_ptrIN4llvm2gi18InstructionMatcherESt14default_deleteIS2_EE3getEv(ptr noundef nonnull align 8 dereferenceable(8) %0) #1 comdat align 2 {
  %2 = alloca ptr, align 8
  store ptr %0, ptr %2, align 8
  %3 = load ptr, ptr %2, align 8
  %4 = getelementptr inbounds nuw %"class.std::unique_ptr.155", ptr %3, i32 0, i32 0
  %5 = call noundef ptr @_ZNKSt15__uniq_ptr_implIN4llvm2gi18InstructionMatcherESt14default_deleteIS2_EE6_M_ptrEv(ptr noundef nonnull align 8 dereferenceable(8) %4) #5
  ret ptr %5
}

; Function Attrs: mustprogress nounwind uwtable
define linkonce_odr hidden noundef ptr @_ZN4llvm8CastInfoINS_2gi25InstructionOperandMatcherEPKNS1_23OperandPredicateMatcherEvE16doCastIfPossibleERKS5_(ptr noundef nonnull align 8 dereferenceable(8) %0) #1 comdat align 2 {
  %2 = alloca ptr, align 8
  %3 = alloca ptr, align 8
  store ptr %0, ptr %3, align 8
  %4 = load ptr, ptr %3, align 8
  %5 = call noundef zeroext i1 @_ZN4llvm14CastIsPossibleINS_2gi25InstructionOperandMatcherEPKNS1_23OperandPredicateMatcherEvE10isPossibleERKS5_(ptr noundef nonnull align 8 dereferenceable(8) %4)
  br i1 %5, label %8, label %6

6:                                                ; preds = %1
  %7 = call noundef ptr @_ZN4llvm8CastInfoINS_2gi25InstructionOperandMatcherEPKNS1_23OperandPredicateMatcherEvE10castFailedEv()
  store ptr %7, ptr %2, align 8
  br label %11

8:                                                ; preds = %1
  %9 = load ptr, ptr %3, align 8
  %10 = call noundef ptr @_ZN4llvm8CastInfoINS_2gi25InstructionOperandMatcherEPKNS1_23OperandPredicateMatcherEvE6doCastERKS5_(ptr noundef nonnull align 8 dereferenceable(8) %9)
  store ptr %10, ptr %2, align 8
  br label %11

11:                                               ; preds = %8, %6
  %12 = load ptr, ptr %2, align 8
  ret ptr %12
}

; Function Attrs: mustprogress nounwind uwtable
define linkonce_odr hidden noundef nonnull align 8 dereferenceable(208) ptr @_ZNKSt10unique_ptrIN4llvm2gi18InstructionMatcherESt14default_deleteIS2_EEdeEv(ptr noundef nonnull align 8 dereferenceable(8) %0) #1 comdat align 2 {
  %2 = alloca ptr, align 8
  store ptr %0, ptr %2, align 8
  %3 = load ptr, ptr %2, align 8
  br label %4

4:                                                ; preds = %1
  br label %5

5:                                                ; preds = %4
  %6 = call noundef ptr @_ZNKSt10unique_ptrIN4llvm2gi18InstructionMatcherESt14default_deleteIS2_EE3getEv(ptr noundef nonnull align 8 dereferenceable(8) %3) #5
  ret ptr %6
}

; Function Attrs: mustprogress nounwind uwtable
define linkonce_odr hidden noundef ptr @_ZNKSt10unique_ptrIN4llvm2gi18InstructionMatcherESt14default_deleteIS2_EEptEv(ptr noundef nonnull align 8 dereferenceable(8) %0) #1 comdat align 2 {
  %2 = alloca ptr, align 8
  store ptr %0, ptr %2, align 8
  %3 = load ptr, ptr %2, align 8
  %4 = call noundef ptr @_ZNKSt10unique_ptrIN4llvm2gi18InstructionMatcherESt14default_deleteIS2_EE3getEv(ptr noundef nonnull align 8 dereferenceable(8) %3) #5
  ret ptr %4
}

; Function Attrs: mustprogress nounwind uwtable
define linkonce_odr hidden noundef ptr @_ZN4llvm8dyn_castINS_2gi25InstructionOperandMatcherEKNS1_23OperandPredicateMatcherEEEDcPT0_(ptr noundef %0) #1 comdat {
  %2 = alloca ptr, align 8
  store ptr %0, ptr %2, align 8
  %3 = call noundef ptr @_ZN4llvm8CastInfoINS_2gi25InstructionOperandMatcherEPKNS1_23OperandPredicateMatcherEvE16doCastIfPossibleERKS5_(ptr noundef nonnull align 8 dereferenceable(8) %2)
  ret ptr %3
}

; Function Attrs: mustprogress nounwind uwtable
define dso_local noundef zeroext i1 @_ZNK4llvm2gi25InstructionOperandMatcher20isHigherPriorityThanERKNS0_23OperandPredicateMatcherE(ptr noundef nonnull align 8 dereferenceable(34) %0, ptr noundef nonnull align 8 dereferenceable(20) %1) unnamed_addr #1 align 2 {
  %3 = alloca i1, align 1
  %4 = alloca ptr, align 8
  %5 = alloca ptr, align 8
  %6 = alloca ptr, align 8
  store ptr %0, ptr %4, align 8
  store ptr %1, ptr %5, align 8
  %7 = load ptr, ptr %4, align 8
  %8 = load ptr, ptr %5, align 8
  %9 = call noundef zeroext i1 @_ZNK4llvm2gi23OperandPredicateMatcher20isHigherPriorityThanERKS1_(ptr noundef nonnull align 8 dereferenceable(20) %7, ptr noundef nonnull align 8 dereferenceable(20) %8)
  br i1 %9, label %10, label %11

10:                                               ; preds = %2
  store i1 true, ptr %3, align 1
  br label %30

11:                                               ; preds = %2
  %12 = load ptr, ptr %5, align 8
  %13 = call noundef zeroext i1 @_ZNK4llvm2gi23OperandPredicateMatcher20isHigherPriorityThanERKS1_(ptr noundef nonnull align 8 dereferenceable(20) %12, ptr noundef nonnull align 8 dereferenceable(20) %7)
  br i1 %13, label %14, label %15

14:                                               ; preds = %11
  store i1 false, ptr %3, align 1
  br label %30

15:                                               ; preds = %11
  %16 = load ptr, ptr %5, align 8
  %17 = call noundef ptr @_ZN4llvm8dyn_castINS_2gi25InstructionOperandMatcherEKNS1_23OperandPredicateMatcherEEEDcPT0_(ptr noundef %16)
  store ptr %17, ptr %6, align 8
  %18 = load ptr, ptr %6, align 8
  %19 = icmp ne ptr %18, null
  br i1 %19, label %20, label %29

20:                                               ; preds = %15
  %21 = getelementptr inbounds nuw %"class.llvm::gi::InstructionOperandMatcher", ptr %7, i32 0, i32 2
  %22 = call noundef ptr @_ZNKSt10unique_ptrIN4llvm2gi18InstructionMatcherESt14default_deleteIS2_EEptEv(ptr noundef nonnull align 8 dereferenceable(8) %21) #5
  %23 = load ptr, ptr %6, align 8
  %24 = getelementptr inbounds nuw %"class.llvm::gi::InstructionOperandMatcher", ptr %23, i32 0, i32 2
  %25 = call noundef nonnull align 8 dereferenceable(208) ptr @_ZNKSt10unique_ptrIN4llvm2gi18InstructionMatcherESt14default_deleteIS2_EEdeEv(ptr noundef nonnull align 8 dereferenceable(8) %24) #5
  %26 = call noundef zeroext i1 @_ZN4llvm2gi18InstructionMatcher20isHigherPriorityThanERS1_(ptr noundef nonnull align 8 dereferenceable(208) %22, ptr noundef nonnull align 8 dereferenceable(208) %25)
  br i1 %26, label %27, label %28

27:                                               ; preds = %20
  store i1 true, ptr %3, align 1
  br label %30

28:                                               ; preds = %20
  br label %29

29:                                               ; preds = %28, %15
  store i1 false, ptr %3, align 1
  br label %30

30:                                               ; preds = %29, %27, %14, %10
  %31 = load i1, ptr %3, align 1
  ret i1 %31
}