; Function Attrs: mustprogress nounwind uwtable
define dso_local noundef zeroext i1 @_ZNK4llvm2gi25InstructionOperandMatcher20isHigherPriorityThanERKNS0_23OperandPredicateMatcherE(ptr nocapture noundef nonnull readonly align 8 dereferenceable(34) %0, ptr nocapture noundef nonnull readonly align 8 dereferenceable(20) %1) unnamed_addr #0 align 2 {
  %3 = tail call noundef zeroext i1 @_ZNK4llvm2gi23OperandPredicateMatcher20isHigherPriorityThanERKS1_(ptr noundef nonnull align 8 dereferenceable(20) %0, ptr noundef nonnull align 8 dereferenceable(20) %1)
  br i1 %3, label %16, label %4

4:                                                ; preds = %2
  %5 = tail call noundef zeroext i1 @_ZNK4llvm2gi23OperandPredicateMatcher20isHigherPriorityThanERKS1_(ptr noundef nonnull align 8 dereferenceable(20) %1, ptr noundef nonnull align 8 dereferenceable(20) %0)
  br i1 %5, label %16, label %6

6:                                                ; preds = %4
  %7 = getelementptr inbounds nuw i8, ptr %1, i64 8
  %8 = load i32, ptr %7, align 8
  %.not = icmp eq i32 %8, 18
  br i1 %.not, label %9, label %15

9:                                                ; preds = %6
  %10 = getelementptr inbounds nuw i8, ptr %0, i64 24
  %11 = load ptr, ptr %10, align 8
  %12 = getelementptr inbounds nuw i8, ptr %1, i64 24
  %13 = load ptr, ptr %12, align 8
  %14 = tail call noundef zeroext i1 @_ZN4llvm2gi18InstructionMatcher20isHigherPriorityThanERS1_(ptr noundef nonnull align 8 dereferenceable(208) %11, ptr noundef nonnull align 8 dereferenceable(208) %13)
  br i1 %14, label %16, label %15

15:                                               ; preds = %9, %6
  br label %16

16:                                               ; preds = %9, %4, %2, %15
  %.0 = phi i1 [ false, %15 ], [ true, %2 ], [ false, %4 ], [ true, %9 ]
  ret i1 %.0
}